; Function Attrs: nounwind uwtable
define hidden void @_ir_TAILCALL_N(ptr nocapture noundef %0, i32 noundef %1, i32 noundef %2, i32 noundef %3, ptr nocapture noundef readonly %4) local_unnamed_addr #0 {
  %6 = getelementptr inbounds i8, ptr %0, i64 32
  %7 = load i32, ptr %6, align 8
  %8 = icmp eq i32 %7, -1
  br i1 %8, label %9, label %10

9:                                                ; preds = %5
  store i32 %1, ptr %6, align 8
  br label %10

10:                                               ; preds = %9, %5
  %11 = shl i32 %1, 8
  %12 = and i32 %11, 16776960
  %13 = add i32 %3, 2
  %14 = getelementptr inbounds i8, ptr %0, i64 8
  %15 = load i32, ptr %14, align 8
  %16 = sdiv i32 %13, 4
  %17 = add i32 %15, %16
  %18 = getelementptr inbounds i8, ptr %0, i64 12
  %19 = load i32, ptr %18, align 4
  %.not22.i = icmp slt i32 %17, %19
  %.pre30.i = load ptr, ptr %0, align 8
  br i1 %.not22.i, label %._crit_edge.i, label %.lr.ph.i

.lr.ph.i:                                         ; preds = %10
  %20 = getelementptr inbounds i8, ptr %0, i64 20
  %.pre29.i = load i32, ptr %20, align 4
  br label %21

21:                                               ; preds = %21, %.lr.ph.i
  %22 = phi i32 [ %.pre29.i, %.lr.ph.i ], [ %36, %21 ]
  %23 = phi ptr [ %.pre30.i, %.lr.ph.i ], [ %38, %21 ]
  %24 = phi i32 [ %19, %.lr.ph.i ], [ %39, %21 ]
  %25 = icmp slt i32 %24, 4096
  %26 = shl nsw i32 %24, 1
  %27 = icmp ult i32 %24, 8192
  %28 = add nuw nsw i32 %24, 4096
  %spec.select.i.i = select i1 %27, i32 8192, i32 %28
  %.sink.i.i = select i1 %25, i32 %26, i32 %spec.select.i.i
  store i32 %.sink.i.i, ptr %18, align 4
  %29 = sext i32 %22 to i64
  %30 = sub nsw i64 0, %29
  %31 = getelementptr inbounds %struct._ir_insn, ptr %23, i64 %30
  %32 = add nsw i32 %.sink.i.i, %22
  %33 = sext i32 %32 to i64
  %34 = shl nsw i64 %33, 4
  %35 = tail call ptr @_erealloc(ptr noundef %31, i64 noundef %34) #24
  %36 = load i32, ptr %20, align 4
  %37 = sext i32 %36 to i64
  %38 = getelementptr inbounds %struct._ir_insn, ptr %35, i64 %37
  store ptr %38, ptr %0, align 8
  %39 = load i32, ptr %18, align 4
  %.not.i = icmp slt i32 %17, %39
  br i1 %.not.i, label %._crit_edge.i, label %21

._crit_edge.i:                                    ; preds = %21, %10
  %40 = phi ptr [ %.pre30.i, %10 ], [ %38, %21 ]
  %41 = add nsw i32 %17, 1
  store i32 %41, ptr %14, align 8
  %42 = sext i32 %15 to i64
  %43 = getelementptr inbounds %struct._ir_insn, ptr %40, i64 %42
  %44 = shl i32 %13, 16
  %45 = or i32 %12, %44
  %46 = or disjoint i32 %45, 70
  store i32 %46, ptr %43, align 8
  %.not2123.i = icmp slt i32 %13, 0
  br i1 %.not2123.i, label %ir_emit_N.exit, label %.lr.ph27.preheader.i

.lr.ph27.preheader.i:                             ; preds = %._crit_edge.i
  %47 = or i32 %13, 3
  %48 = shl nsw i64 %42, 4
  %49 = or disjoint i64 %48, 4
  %scevgep.i = getelementptr i8, ptr %40, i64 %49
  %50 = zext nneg i32 %47 to i64
  %51 = shl nuw nsw i64 %50, 2
  tail call void @llvm.memset.p0.i64(ptr noundef nonnull align 4 dereferenceable(1) %scevgep.i, i8 0, i64 %51, i1 false)
  br label %ir_emit_N.exit

ir_emit_N.exit:                                   ; preds = %._crit_edge.i, %.lr.ph27.preheader.i
  %52 = getelementptr inbounds i8, ptr %0, i64 248
  %53 = load i32, ptr %52, align 8
  %54 = load ptr, ptr %0, align 8
  %55 = getelementptr inbounds %struct._ir_insn, ptr %54, i64 %42, i32 0, i32 1
  store i32 %53, ptr %55, align 4
  %56 = load ptr, ptr %0, align 8
  %57 = getelementptr inbounds %struct._ir_insn, ptr %56, i64 %42, i32 1
  store i32 %2, ptr %57, align 4
  %.not = icmp eq i32 %3, 0
  br i1 %.not, label %._crit_edge, label %.lr.ph

.lr.ph:                                           ; preds = %ir_emit_N.exit, %.lr.ph
  %.022 = phi i32 [ %66, %.lr.ph ], [ 0, %ir_emit_N.exit ]
  %58 = add i32 %.022, 3
  %59 = zext i32 %.022 to i64
  %60 = getelementptr inbounds i32, ptr %4, i64 %59
  %61 = load i32, ptr %60, align 4
  %62 = load ptr, ptr %0, align 8
  %63 = getelementptr inbounds %struct._ir_insn, ptr %62, i64 %42
  %64 = sext i32 %58 to i64
  %65 = getelementptr inbounds i32, ptr %63, i64 %64
  store i32 %61, ptr %65, align 4
  %66 = add nuw i32 %.022, 1
  %exitcond.not = icmp eq i32 %66, %3
  br i1 %exitcond.not, label %._crit_edge, label %.lr.ph

._crit_edge:                                      ; preds = %.lr.ph, %ir_emit_N.exit
  store i32 %15, ptr %52, align 8
  %67 = load ptr, ptr %0, align 8
  %68 = getelementptr inbounds i8, ptr %67, i64 20
  %69 = load i32, ptr %68, align 4
  %70 = load i32, ptr %14, align 8
  %71 = load i32, ptr %18, align 4
  %.not.i.i.i.i = icmp slt i32 %70, %71
  br i1 %.not.i.i.i.i, label %_ir_UNREACHABLE.exit, label %72

72:                                               ; preds = %._crit_edge
  %73 = getelementptr inbounds i8, ptr %0, i64 20
  %74 = load i32, ptr %73, align 4
  %75 = icmp slt i32 %71, 4096
  %76 = shl nsw i32 %71, 1
  %77 = icmp ult i32 %71, 8192
  %78 = add nuw nsw i32 %71, 4096
  %spec.select.i.i.i.i.i = select i1 %77, i32 8192, i32 %78
  %.sink.i.i.i.i.i = select i1 %75, i32 %76, i32 %spec.select.i.i.i.i.i
  store i32 %.sink.i.i.i.i.i, ptr %18, align 4
  %79 = sext i32 %74 to i64
  %80 = sub nsw i64 0, %79
  %81 = getelementptr inbounds %struct._ir_insn, ptr %67, i64 %80
  %82 = add nsw i32 %74, %.sink.i.i.i.i.i
  %83 = sext i32 %82 to i64
  %84 = shl nsw i64 %83, 4
  %85 = tail call ptr @_erealloc(ptr noundef %81, i64 noundef %84) #24
  %86 = load i32, ptr %73, align 4
  %87 = sext i32 %86 to i64
  %88 = getelementptr inbounds %struct._ir_insn, ptr %85, i64 %87
  store ptr %88, ptr %0, align 8
  br label %_ir_UNREACHABLE.exit

_ir_UNREACHABLE.exit:                             ; preds = %._crit_edge, %72
  %89 = phi ptr [ %67, %._crit_edge ], [ %88, %72 ]
  %90 = add nsw i32 %70, 1
  store i32 %90, ptr %14, align 8
  %91 = sext i32 %70 to i64
  %92 = getelementptr inbounds %struct._ir_insn, ptr %89, i64 %91
  store i32 104, ptr %92, align 8
  %93 = getelementptr inbounds i8, ptr %92, i64 4
  store i32 %15, ptr %93, align 4
  %94 = getelementptr inbounds i8, ptr %92, i64 8
  store i32 0, ptr %94, align 8
  %95 = getelementptr inbounds i8, ptr %92, i64 12
  store i32 %69, ptr %95, align 4
  %96 = load ptr, ptr %0, align 8
  %97 = getelementptr inbounds i8, ptr %96, i64 20
  store i32 %70, ptr %97, align 4
  store i32 0, ptr %52, align 8
  ret void
}